target datalayout = "e-m:e-p270:32:32-p271:32:32-p272:64:64-i64:64-i128:128-f80:128-n8:16:32:64-S128"
target triple = "x86_64-pc-linux-gnu"

%struct.expert_field = type { i32, i32 }
%struct._packet_info = type { ptr, ptr, i32, i32, %struct.nstime_t, %struct.nstime_t, %struct.nstime_t, i8, ptr, ptr, ptr, ptr, %struct._address, %struct._address, %struct._address, %struct._address, %struct._address, %struct._address, i32, ptr, i8, [3 x i8], %struct.anon, i32, i32, i32, i32, ptr, i8, ptr, ptr, i16, i16, i32, i32, i16, i32, i32, ptr, ptr, ptr, i8, i8, i16, i16, i16, i32, i16, i16, ptr, ptr, ptr, ptr, ptr, i32, i32 }
%struct.nstime_t = type { i64, i32 }
%struct._address = type { i32, i32, ptr, ptr }
%struct.anon = type { i8, [3 x i8] }
%struct._t38_packet_info = type { i16, i32, i32, i32, i32, i32, i8, [128 x i8], [128 x i8], double, i32 }

@hf_t30_partial_page_fcf2 = internal global i32 0, align 4
@hf_t30_partial_page_i1 = internal global i32 0, align 4
@hf_t30_partial_page_i2 = internal global i32 0, align 4
@hf_t30_partial_page_i3 = internal global i32 0, align 4
@ei_t30_bad_length = internal global %struct.expert_field zeroinitializer, align 4
@.str.405 = private unnamed_addr constant [29 x i8] c" [MALFORMED OR SHORT PACKET]\00", align 1
@.str.416 = private unnamed_addr constant [31 x i8] c"T30 PPS length must be 4 bytes\00", align 1
@.str.417 = private unnamed_addr constant [21 x i8] c" - PC:%d BC:%d FC:%d\00", align 1
@.str.418 = private unnamed_addr constant [18 x i8] c"PC:%d BC:%d FC:%d\00", align 1

; Function Attrs: nounwind null_pointer_is_valid sspstrong uwtable
define internal zeroext i8 @reverse_byte(i8 noundef zeroext %0) #3 {
  %2 = alloca i8, align 1
  store i8 %0, ptr %2, align 1
  %3 = load i8, ptr %2, align 1
  %4 = zext i8 %3 to i32
  %5 = and i32 %4, 128
  %6 = ashr i32 %5, 7
  %7 = load i8, ptr %2, align 1
  %8 = zext i8 %7 to i32
  %9 = and i32 %8, 64
  %10 = ashr i32 %9, 5
  %11 = or i32 %6, %10
  %12 = load i8, ptr %2, align 1
  %13 = zext i8 %12 to i32
  %14 = and i32 %13, 32
  %15 = ashr i32 %14, 3
  %16 = or i32 %11, %15
  %17 = load i8, ptr %2, align 1
  %18 = zext i8 %17 to i32
  %19 = and i32 %18, 16
  %20 = ashr i32 %19, 1
  %21 = or i32 %16, %20
  %22 = load i8, ptr %2, align 1
  %23 = zext i8 %22 to i32
  %24 = and i32 %23, 8
  %25 = shl i32 %24, 1
  %26 = or i32 %21, %25
  %27 = load i8, ptr %2, align 1
  %28 = zext i8 %27 to i32
  %29 = and i32 %28, 4
  %30 = shl i32 %29, 3
  %31 = or i32 %26, %30
  %32 = load i8, ptr %2, align 1
  %33 = zext i8 %32 to i32
  %34 = and i32 %33, 2
  %35 = shl i32 %34, 5
  %36 = or i32 %31, %35
  %37 = load i8, ptr %2, align 1
  %38 = zext i8 %37 to i32
  %39 = and i32 %38, 1
  %40 = shl i32 %39, 7
  %41 = or i32 %36, %40
  %42 = trunc i32 %41 to i8
  ret i8 %42
}

; Function Attrs: null_pointer_is_valid sspstrong uwtable
define internal void @dissect_t30_partial_page_signal(ptr noundef %0, i32 noundef %1, ptr noundef %2, i32 noundef %3, ptr noundef %4, ptr noundef %5) #1 {
  %7 = alloca ptr, align 8
  %8 = alloca i32, align 4
  %9 = alloca ptr, align 8
  %10 = alloca i32, align 4
  %11 = alloca ptr, align 8
  %12 = alloca ptr, align 8
  %13 = alloca i8, align 1
  %14 = alloca i8, align 1
  %15 = alloca i8, align 1
  %16 = alloca i8, align 1
  %17 = alloca i32, align 4
  store ptr %0, ptr %7, align 8
  store i32 %1, ptr %8, align 4
  store ptr %2, ptr %9, align 8
  store i32 %3, ptr %10, align 4
  store ptr %4, ptr %11, align 8
  store ptr %5, ptr %12, align 8
  call void @llvm.lifetime.start.p0(i64 1, ptr %13) #8
  call void @llvm.lifetime.start.p0(i64 1, ptr %14) #8
  call void @llvm.lifetime.start.p0(i64 1, ptr %15) #8
  call void @llvm.lifetime.start.p0(i64 1, ptr %16) #8
  %18 = load i32, ptr %10, align 4
  %19 = icmp ne i32 %18, 4
  br i1 %19, label %20, label %32

20:                                               ; preds = %6
  %21 = load ptr, ptr %11, align 8
  %22 = load ptr, ptr %9, align 8
  %23 = load ptr, ptr %7, align 8
  %24 = load i32, ptr %8, align 4
  %25 = load ptr, ptr %7, align 8
  %26 = load i32, ptr %8, align 4
  %27 = call i32 @tvb_reported_length_remaining(ptr noundef %25, i32 noundef %26)
  %28 = call ptr (ptr, ptr, ptr, ptr, i32, i32, ptr, ...) @proto_tree_add_expert_format(ptr noundef %21, ptr noundef %22, ptr noundef @ei_t30_bad_length, ptr noundef %23, i32 noundef %24, i32 noundef %27, ptr noundef @.str.416)
  %29 = load ptr, ptr %9, align 8
  %30 = getelementptr inbounds nuw %struct._packet_info, ptr %29, i32 0, i32 1
  %31 = load ptr, ptr %30, align 8
  call void @col_append_str(ptr noundef %31, i32 noundef 25, ptr noundef @.str.405)
  store i32 1, ptr %17, align 4
  br label %105

32:                                               ; preds = %6
  %33 = load ptr, ptr %11, align 8
  %34 = load i32, ptr @hf_t30_partial_page_fcf2, align 4
  %35 = load ptr, ptr %7, align 8
  %36 = load i32, ptr %8, align 4
  %37 = call ptr @proto_tree_add_item(ptr noundef %33, i32 noundef %34, ptr noundef %35, i32 noundef %36, i32 noundef 1, i32 noundef 0)
  %38 = load i32, ptr %8, align 4
  %39 = add i32 %38, 1
  store i32 %39, ptr %8, align 4
  %40 = load ptr, ptr %7, align 8
  %41 = load i32, ptr %8, align 4
  %42 = call zeroext i8 @tvb_get_uint8(ptr noundef %40, i32 noundef %41)
  store i8 %42, ptr %13, align 1
  %43 = load i8, ptr %13, align 1
  %44 = call zeroext i8 @reverse_byte(i8 noundef zeroext %43)
  store i8 %44, ptr %14, align 1
  %45 = load ptr, ptr %11, align 8
  %46 = load i32, ptr @hf_t30_partial_page_i1, align 4
  %47 = load ptr, ptr %7, align 8
  %48 = load i32, ptr %8, align 4
  %49 = load i8, ptr %14, align 1
  %50 = zext i8 %49 to i32
  %51 = call ptr @proto_tree_add_uint(ptr noundef %45, i32 noundef %46, ptr noundef %47, i32 noundef %48, i32 noundef 1, i32 noundef %50)
  %52 = load i32, ptr %8, align 4
  %53 = add i32 %52, 1
  store i32 %53, ptr %8, align 4
  %54 = load ptr, ptr %7, align 8
  %55 = load i32, ptr %8, align 4
  %56 = call zeroext i8 @tvb_get_uint8(ptr noundef %54, i32 noundef %55)
  store i8 %56, ptr %13, align 1
  %57 = load i8, ptr %13, align 1
  %58 = call zeroext i8 @reverse_byte(i8 noundef zeroext %57)
  store i8 %58, ptr %15, align 1
  %59 = load ptr, ptr %11, align 8
  %60 = load i32, ptr @hf_t30_partial_page_i2, align 4
  %61 = load ptr, ptr %7, align 8
  %62 = load i32, ptr %8, align 4
  %63 = load i8, ptr %15, align 1
  %64 = zext i8 %63 to i32
  %65 = call ptr @proto_tree_add_uint(ptr noundef %59, i32 noundef %60, ptr noundef %61, i32 noundef %62, i32 noundef 1, i32 noundef %64)
  %66 = load i32, ptr %8, align 4
  %67 = add i32 %66, 1
  store i32 %67, ptr %8, align 4
  %68 = load ptr, ptr %7, align 8
  %69 = load i32, ptr %8, align 4
  %70 = call zeroext i8 @tvb_get_uint8(ptr noundef %68, i32 noundef %69)
  store i8 %70, ptr %13, align 1
  %71 = load i8, ptr %13, align 1
  %72 = call zeroext i8 @reverse_byte(i8 noundef zeroext %71)
  store i8 %72, ptr %16, align 1
  %73 = load ptr, ptr %11, align 8
  %74 = load i32, ptr @hf_t30_partial_page_i3, align 4
  %75 = load ptr, ptr %7, align 8
  %76 = load i32, ptr %8, align 4
  %77 = load i8, ptr %16, align 1
  %78 = zext i8 %77 to i32
  %79 = call ptr @proto_tree_add_uint(ptr noundef %73, i32 noundef %74, ptr noundef %75, i32 noundef %76, i32 noundef 1, i32 noundef %78)
  %80 = load i32, ptr %8, align 4
  %81 = add i32 %80, 1
  store i32 %81, ptr %8, align 4
  %82 = load ptr, ptr %9, align 8
  %83 = getelementptr inbounds nuw %struct._packet_info, ptr %82, i32 0, i32 1
  %84 = load ptr, ptr %83, align 8
  %85 = load i8, ptr %14, align 1
  %86 = zext i8 %85 to i32
  %87 = load i8, ptr %15, align 1
  %88 = zext i8 %87 to i32
  %89 = load i8, ptr %16, align 1
  %90 = zext i8 %89 to i32
  call void (ptr, i32, ptr, ...) @col_append_fstr(ptr noundef %84, i32 noundef 25, ptr noundef @.str.417, i32 noundef %86, i32 noundef %88, i32 noundef %90)
  %91 = load ptr, ptr %12, align 8
  %92 = icmp ne ptr %91, null
  br i1 %92, label %93, label %104

93:                                               ; preds = %32
  %94 = load ptr, ptr %12, align 8
  %95 = getelementptr inbounds nuw %struct._t38_packet_info, ptr %94, i32 0, i32 7
  %96 = getelementptr inbounds [128 x i8], ptr %95, i64 0, i64 0
  %97 = load i8, ptr %14, align 1
  %98 = zext i8 %97 to i32
  %99 = load i8, ptr %15, align 1
  %100 = zext i8 %99 to i32
  %101 = load i8, ptr %16, align 1
  %102 = zext i8 %101 to i32
  %103 = call i32 (ptr, i64, i32, i64, ptr, ...) @__snprintf_chk(ptr noundef %96, i64 noundef 128, i32 noundef 2, i64 noundef 128, ptr noundef @.str.418, i32 noundef %98, i32 noundef %100, i32 noundef %102)
  br label %104

104:                                              ; preds = %93, %32
  store i32 0, ptr %17, align 4
  br label %105

105:                                              ; preds = %104, %20
  call void @llvm.lifetime.end.p0(i64 1, ptr %16) #8
  call void @llvm.lifetime.end.p0(i64 1, ptr %15) #8
  call void @llvm.lifetime.end.p0(i64 1, ptr %14) #8
  call void @llvm.lifetime.end.p0(i64 1, ptr %13) #8
  %106 = load i32, ptr %17, align 4
  switch i32 %106, label %108 [
    i32 0, label %107
    i32 1, label %107
  ]

107:                                              ; preds = %105, %105
  ret void

108:                                              ; preds = %105
  unreachable
}