; Function Attrs: null_pointer_is_valid sspstrong uwtable
define internal fastcc void @dissect_t30_partial_page_signal(ptr noundef %0, ptr noundef %1, i32 noundef %2, ptr noundef %3, ptr noundef %4) unnamed_addr #1 {
  %.not = icmp eq i32 %2, 4
  br i1 %.not, label %11, label %6

6:                                                ; preds = %5
  %7 = tail call i32 @tvb_reported_length_remaining(ptr noundef %0, i32 noundef 3)
  %8 = tail call ptr (ptr, ptr, ptr, ptr, i32, i32, ptr, ...) @proto_tree_add_expert_format(ptr noundef %3, ptr noundef %1, ptr noundef nonnull @ei_t30_bad_length, ptr noundef %0, i32 noundef 3, i32 noundef %7, ptr noundef nonnull @.str.416)
  %9 = getelementptr inbounds nuw i8, ptr %1, i64 8
  %10 = load ptr, ptr %9, align 8
  tail call void @col_append_str(ptr noundef %10, i32 noundef 25, ptr noundef nonnull @.str.405)
  br label %31

11:                                               ; preds = %5
  %12 = load i32, ptr @hf_t30_partial_page_fcf2, align 4
  %13 = tail call ptr @proto_tree_add_item(ptr noundef %3, i32 noundef %12, ptr noundef %0, i32 noundef 3, i32 noundef 1, i32 noundef 0)
  %14 = tail call zeroext i8 @tvb_get_uint8(ptr noundef %0, i32 noundef 4)
  %rev.i = tail call noundef i8 @llvm.bitreverse.i8(i8 %14)
  %15 = load i32, ptr @hf_t30_partial_page_i1, align 4
  %16 = zext i8 %rev.i to i32
  %17 = tail call ptr @proto_tree_add_uint(ptr noundef %3, i32 noundef %15, ptr noundef %0, i32 noundef 4, i32 noundef 1, i32 noundef %16)
  %18 = tail call zeroext i8 @tvb_get_uint8(ptr noundef %0, i32 noundef 5)
  %rev.i45 = tail call noundef i8 @llvm.bitreverse.i8(i8 %18)
  %19 = load i32, ptr @hf_t30_partial_page_i2, align 4
  %20 = zext i8 %rev.i45 to i32
  %21 = tail call ptr @proto_tree_add_uint(ptr noundef %3, i32 noundef %19, ptr noundef %0, i32 noundef 5, i32 noundef 1, i32 noundef %20)
  %22 = tail call zeroext i8 @tvb_get_uint8(ptr noundef %0, i32 noundef 6)
  %rev.i46 = tail call noundef i8 @llvm.bitreverse.i8(i8 %22)
  %23 = load i32, ptr @hf_t30_partial_page_i3, align 4
  %24 = zext i8 %rev.i46 to i32
  %25 = tail call ptr @proto_tree_add_uint(ptr noundef %3, i32 noundef %23, ptr noundef %0, i32 noundef 6, i32 noundef 1, i32 noundef %24)
  %26 = getelementptr inbounds nuw i8, ptr %1, i64 8
  %27 = load ptr, ptr %26, align 8
  tail call void (ptr, i32, ptr, ...) @col_append_fstr(ptr noundef %27, i32 noundef 25, ptr noundef nonnull @.str.417, i32 noundef %16, i32 noundef %20, i32 noundef %24)
  %.not44 = icmp eq ptr %4, null
  br i1 %.not44, label %31, label %28

28:                                               ; preds = %11
  %29 = getelementptr inbounds nuw i8, ptr %4, i64 25
  %30 = tail call i32 (ptr, i64, i32, i64, ptr, ...) @__snprintf_chk(ptr noundef nonnull %29, i64 noundef 128, i32 noundef 2, i64 noundef 128, ptr noundef nonnull @.str.418, i32 noundef %16, i32 noundef %20, i32 noundef %24)
  br label %31

31:                                               ; preds = %11, %28, %6
  ret void
}